target datalayout = "e-m:e-p270:32:32-p271:32:32-p272:64:64-i64:64-i128:128-f80:128-n8:16:32:64-S128"
target triple = "x86_64-unknown-linux-gnu"

%"class.net::QuicWallTime" = type { i64 }
%"class.net::SourceAddressTokens" = type { %"class.google::protobuf::MessageLite", %"struct.google::protobuf::internal::ArenaStringPtr", ptr, [1 x i32], i32, %"class.google::protobuf::RepeatedPtrField" }
%"class.google::protobuf::MessageLite" = type { ptr }
%"struct.google::protobuf::internal::ArenaStringPtr" = type { ptr }
%"class.google::protobuf::RepeatedPtrField" = type { %"class.google::protobuf::internal::RepeatedPtrFieldBase" }
%"class.google::protobuf::internal::RepeatedPtrFieldBase" = type { ptr, i32, i32, ptr }
%"class.google::protobuf::internal::RepeatedPtrIterator" = type { ptr }
%"class.net::SourceAddressToken" = type { %"class.google::protobuf::MessageLite", %"struct.google::protobuf::internal::ArenaStringPtr", ptr, [1 x i32], i32, %"struct.google::protobuf::internal::ArenaStringPtr", i64, ptr }
%"class.google::protobuf::internal::RepeatedPtrIterator.329" = type { ptr }
%"struct.google::protobuf::internal::RepeatedPtrFieldBase::Rep" = type { i32, [1 x ptr] }

@_ZN3net18SourceAddressToken17default_instance_E = external global ptr, align 8

; Function Attrs: mustprogress nounwind uwtable
define linkonce_odr dso_local noundef i32 @_ZNK6google8protobuf8internal20RepeatedPtrFieldBase4sizeEv(ptr noundef nonnull align 8 dereferenceable(24) %this) #3 comdat align 2 {
entry:
  %this.addr = alloca ptr, align 8
  store ptr %this, ptr %this.addr, align 8
  %this1 = load ptr, ptr %this.addr, align 8
  %current_size_ = getelementptr inbounds %"class.google::protobuf::internal::RepeatedPtrFieldBase", ptr %this1, i32 0, i32 1
  %0 = load i32, ptr %current_size_, align 8
  ret i32 %0
}

; Function Attrs: mustprogress uwtable
define linkonce_odr dso_local noundef i32 @_ZNK6google8protobuf16RepeatedPtrFieldIN3net18SourceAddressTokenEE4sizeEv(ptr noundef nonnull align 8 dereferenceable(24) %this) #0 comdat align 2 {
entry:
  %this.addr = alloca ptr, align 8
  store ptr %this, ptr %this.addr, align 8
  %this1 = load ptr, ptr %this.addr, align 8
  %call = call noundef i32 @_ZNK6google8protobuf8internal20RepeatedPtrFieldBase4sizeEv(ptr noundef nonnull align 8 dereferenceable(24) %this1)
  ret i32 %call
}

; Function Attrs: mustprogress nounwind uwtable
define linkonce_odr dso_local void @_ZN6google8protobuf8internal19RepeatedPtrIteratorIKN3net18SourceAddressTokenEEC2IS4_EERKNS2_IT_EE(ptr noundef nonnull align 8 dereferenceable(8) %this, ptr noundef nonnull align 8 dereferenceable(8) %other) unnamed_addr #3 comdat align 2 {
entry:
  %this.addr = alloca ptr, align 8
  %other.addr = alloca ptr, align 8
  store ptr %this, ptr %this.addr, align 8
  store ptr %other, ptr %other.addr, align 8
  %this1 = load ptr, ptr %this.addr, align 8
  %it_ = getelementptr inbounds %"class.google::protobuf::internal::RepeatedPtrIterator", ptr %this1, i32 0, i32 0
  %0 = load ptr, ptr %other.addr, align 8
  %it_2 = getelementptr inbounds %"class.google::protobuf::internal::RepeatedPtrIterator.329", ptr %0, i32 0, i32 0
  %1 = load ptr, ptr %it_2, align 8
  store ptr %1, ptr %it_, align 8
  ret void
}

; Function Attrs: mustprogress nounwind uwtable
define linkonce_odr dso_local void @_ZN6google8protobuf8internal19RepeatedPtrIteratorIN3net18SourceAddressTokenEEC2EPKPv(ptr noundef nonnull align 8 dereferenceable(8) %this, ptr noundef %it) unnamed_addr #3 comdat align 2 {
entry:
  %this.addr = alloca ptr, align 8
  %it.addr = alloca ptr, align 8
  store ptr %this, ptr %this.addr, align 8
  store ptr %it, ptr %it.addr, align 8
  %this1 = load ptr, ptr %this.addr, align 8
  %it_ = getelementptr inbounds %"class.google::protobuf::internal::RepeatedPtrIterator.329", ptr %this1, i32 0, i32 0
  %0 = load ptr, ptr %it.addr, align 8
  store ptr %0, ptr %it_, align 8
  ret void
}

; Function Attrs: mustprogress nounwind uwtable
define linkonce_odr dso_local noundef ptr @_ZNK6google8protobuf8internal20RepeatedPtrFieldBase8raw_dataEv(ptr noundef nonnull align 8 dereferenceable(24) %this) #3 comdat align 2 {
entry:
  %this.addr = alloca ptr, align 8
  store ptr %this, ptr %this.addr, align 8
  %this1 = load ptr, ptr %this.addr, align 8
  %rep_ = getelementptr inbounds %"class.google::protobuf::internal::RepeatedPtrFieldBase", ptr %this1, i32 0, i32 3
  %0 = load ptr, ptr %rep_, align 8
  %tobool = icmp ne ptr %0, null
  br i1 %tobool, label %cond.true, label %cond.false

cond.true:                                        ; preds = %entry
  %rep_2 = getelementptr inbounds %"class.google::protobuf::internal::RepeatedPtrFieldBase", ptr %this1, i32 0, i32 3
  %1 = load ptr, ptr %rep_2, align 8
  %elements = getelementptr inbounds %"struct.google::protobuf::internal::RepeatedPtrFieldBase::Rep", ptr %1, i32 0, i32 1
  %arraydecay = getelementptr inbounds [1 x ptr], ptr %elements, i64 0, i64 0
  br label %cond.end

cond.false:                                       ; preds = %entry
  br label %cond.end

cond.end:                                         ; preds = %cond.false, %cond.true
  %cond = phi ptr [ %arraydecay, %cond.true ], [ null, %cond.false ]
  ret ptr %cond
}

; Function Attrs: mustprogress nounwind uwtable
define linkonce_odr dso_local noundef nonnull align 8 dereferenceable(8) ptr @_ZN6google8protobuf8internal19RepeatedPtrIteratorIKN3net18SourceAddressTokenEEppEv(ptr noundef nonnull align 8 dereferenceable(8) %this) #3 comdat align 2 {
entry:
  %this.addr = alloca ptr, align 8
  store ptr %this, ptr %this.addr, align 8
  %this1 = load ptr, ptr %this.addr, align 8
  %it_ = getelementptr inbounds %"class.google::protobuf::internal::RepeatedPtrIterator", ptr %this1, i32 0, i32 0
  %0 = load ptr, ptr %it_, align 8
  %incdec.ptr = getelementptr inbounds ptr, ptr %0, i32 1
  store ptr %incdec.ptr, ptr %it_, align 8
  ret ptr %this1
}

; Function Attrs: mustprogress uwtable
define linkonce_odr dso_local noundef nonnull align 8 dereferenceable(72) ptr @_ZN3net23CachedNetworkParametersaSERKS0_(ptr noundef nonnull align 8 dereferenceable(72) %this, ptr noundef nonnull align 8 dereferenceable(72) %from) #0 comdat align 2 {
entry:
  %this.addr = alloca ptr, align 8
  %from.addr = alloca ptr, align 8
  store ptr %this, ptr %this.addr, align 8
  store ptr %from, ptr %from.addr, align 8
  %this1 = load ptr, ptr %this.addr, align 8
  %0 = load ptr, ptr %from.addr, align 8
  call void @_ZN3net23CachedNetworkParameters8CopyFromERKS0_(ptr noundef nonnull align 8 dereferenceable(72) %this1, ptr noundef nonnull align 8 dereferenceable(72) %0)
  ret ptr %this1
}

; Function Attrs: mustprogress nounwind uwtable
define linkonce_odr dso_local noundef nonnull align 8 dereferenceable(72) ptr @_ZNK3net18SourceAddressToken25cached_network_parametersEv(ptr noundef nonnull align 8 dereferenceable(56) %this) #3 comdat align 2 {
entry:
  %this.addr = alloca ptr, align 8
  store ptr %this, ptr %this.addr, align 8
  %this1 = load ptr, ptr %this.addr, align 8
  %cached_network_parameters_ = getelementptr inbounds %"class.net::SourceAddressToken", ptr %this1, i32 0, i32 7
  %0 = load ptr, ptr %cached_network_parameters_, align 8
  %cmp = icmp ne ptr %0, null
  br i1 %cmp, label %cond.true, label %cond.false

cond.true:                                        ; preds = %entry
  %cached_network_parameters_2 = getelementptr inbounds %"class.net::SourceAddressToken", ptr %this1, i32 0, i32 7
  %1 = load ptr, ptr %cached_network_parameters_2, align 8
  br label %cond.end

cond.false:                                       ; preds = %entry
  %2 = load ptr, ptr @_ZN3net18SourceAddressToken17default_instance_E, align 8
  %cached_network_parameters_3 = getelementptr inbounds %"class.net::SourceAddressToken", ptr %2, i32 0, i32 7
  %3 = load ptr, ptr %cached_network_parameters_3, align 8
  br label %cond.end

cond.end:                                         ; preds = %cond.false, %cond.true
  %cond-lvalue = phi ptr [ %1, %cond.true ], [ %3, %cond.false ]
  ret ptr %cond-lvalue
}

; Function Attrs: mustprogress nounwind uwtable
define linkonce_odr dso_local noundef zeroext i1 @_ZNK3net18SourceAddressToken29has_cached_network_parametersEv(ptr noundef nonnull align 8 dereferenceable(56) %this) #3 comdat align 2 {
entry:
  %this.addr = alloca ptr, align 8
  store ptr %this, ptr %this.addr, align 8
  %this1 = load ptr, ptr %this.addr, align 8
  %_has_bits_ = getelementptr inbounds %"class.net::SourceAddressToken", ptr %this1, i32 0, i32 3
  %arrayidx = getelementptr inbounds [1 x i32], ptr %_has_bits_, i64 0, i64 0
  %0 = load i32, ptr %arrayidx, align 8
  %and = and i32 %0, 4
  %cmp = icmp ne i32 %and, 0
  ret i1 %cmp
}

; Function Attrs: mustprogress nounwind uwtable
define linkonce_odr dso_local noundef nonnull align 8 dereferenceable(56) ptr @_ZNK6google8protobuf8internal19RepeatedPtrIteratorIKN3net18SourceAddressTokenEEdeEv(ptr noundef nonnull align 8 dereferenceable(8) %this) #3 comdat align 2 {
entry:
  %this.addr = alloca ptr, align 8
  store ptr %this, ptr %this.addr, align 8
  %this1 = load ptr, ptr %this.addr, align 8
  %it_ = getelementptr inbounds %"class.google::protobuf::internal::RepeatedPtrIterator", ptr %this1, i32 0, i32 0
  %0 = load ptr, ptr %it_, align 8
  %1 = load ptr, ptr %0, align 8
  ret ptr %1
}

; Function Attrs: mustprogress nounwind uwtable
define linkonce_odr dso_local noundef zeroext i1 @_ZNK6google8protobuf8internal19RepeatedPtrIteratorIKN3net18SourceAddressTokenEEneERKS6_(ptr noundef nonnull align 8 dereferenceable(8) %this, ptr noundef nonnull align 8 dereferenceable(8) %x) #3 comdat align 2 {
entry:
  %this.addr = alloca ptr, align 8
  %x.addr = alloca ptr, align 8
  store ptr %this, ptr %this.addr, align 8
  store ptr %x, ptr %x.addr, align 8
  %this1 = load ptr, ptr %this.addr, align 8
  %it_ = getelementptr inbounds %"class.google::protobuf::internal::RepeatedPtrIterator", ptr %this1, i32 0, i32 0
  %0 = load ptr, ptr %it_, align 8
  %1 = load ptr, ptr %x.addr, align 8
  %it_2 = getelementptr inbounds %"class.google::protobuf::internal::RepeatedPtrIterator", ptr %1, i32 0, i32 0
  %2 = load ptr, ptr %it_2, align 8
  %cmp = icmp ne ptr %0, %2
  ret i1 %cmp
}

; Function Attrs: mustprogress uwtable
define linkonce_odr dso_local ptr @_ZNK6google8protobuf16RepeatedPtrFieldIN3net18SourceAddressTokenEE3endEv(ptr noundef nonnull align 8 dereferenceable(24) %this) #0 comdat align 2 {
entry:
  %retval = alloca %"class.google::protobuf::internal::RepeatedPtrIterator", align 8
  %this.addr = alloca ptr, align 8
  %ref.tmp = alloca %"class.google::protobuf::internal::RepeatedPtrIterator.329", align 8
  store ptr %this, ptr %this.addr, align 8
  %this1 = load ptr, ptr %this.addr, align 8
  %call = call noundef ptr @_ZNK6google8protobuf8internal20RepeatedPtrFieldBase8raw_dataEv(ptr noundef nonnull align 8 dereferenceable(24) %this1)
  %call2 = call noundef i32 @_ZNK6google8protobuf16RepeatedPtrFieldIN3net18SourceAddressTokenEE4sizeEv(ptr noundef nonnull align 8 dereferenceable(24) %this1)
  %idx.ext = sext i32 %call2 to i64
  %add.ptr = getelementptr inbounds ptr, ptr %call, i64 %idx.ext
  call void @_ZN6google8protobuf8internal19RepeatedPtrIteratorIN3net18SourceAddressTokenEEC2EPKPv(ptr noundef nonnull align 8 dereferenceable(8) %ref.tmp, ptr noundef %add.ptr)
  call void @_ZN6google8protobuf8internal19RepeatedPtrIteratorIKN3net18SourceAddressTokenEEC2IS4_EERKNS2_IT_EE(ptr noundef nonnull align 8 dereferenceable(8) %retval, ptr noundef nonnull align 8 dereferenceable(8) %ref.tmp)
  %coerce.dive = getelementptr inbounds %"class.google::protobuf::internal::RepeatedPtrIterator", ptr %retval, i32 0, i32 0
  %0 = load ptr, ptr %coerce.dive, align 8
  ret ptr %0
}

; Function Attrs: mustprogress uwtable
define linkonce_odr dso_local ptr @_ZNK6google8protobuf16RepeatedPtrFieldIN3net18SourceAddressTokenEE5beginEv(ptr noundef nonnull align 8 dereferenceable(24) %this) #0 comdat align 2 {
entry:
  %retval = alloca %"class.google::protobuf::internal::RepeatedPtrIterator", align 8
  %this.addr = alloca ptr, align 8
  %ref.tmp = alloca %"class.google::protobuf::internal::RepeatedPtrIterator.329", align 8
  store ptr %this, ptr %this.addr, align 8
  %this1 = load ptr, ptr %this.addr, align 8
  %call = call noundef ptr @_ZNK6google8protobuf8internal20RepeatedPtrFieldBase8raw_dataEv(ptr noundef nonnull align 8 dereferenceable(24) %this1)
  call void @_ZN6google8protobuf8internal19RepeatedPtrIteratorIN3net18SourceAddressTokenEEC2EPKPv(ptr noundef nonnull align 8 dereferenceable(8) %ref.tmp, ptr noundef %call)
  call void @_ZN6google8protobuf8internal19RepeatedPtrIteratorIKN3net18SourceAddressTokenEEC2IS4_EERKNS2_IT_EE(ptr noundef nonnull align 8 dereferenceable(8) %retval, ptr noundef nonnull align 8 dereferenceable(8) %ref.tmp)
  %coerce.dive = getelementptr inbounds %"class.google::protobuf::internal::RepeatedPtrIterator", ptr %retval, i32 0, i32 0
  %0 = load ptr, ptr %coerce.dive, align 8
  ret ptr %0
}

; Function Attrs: mustprogress nounwind uwtable
define linkonce_odr dso_local noundef nonnull align 8 dereferenceable(24) ptr @_ZNK3net19SourceAddressTokens6tokensEv(ptr noundef nonnull align 8 dereferenceable(56) %this) #3 comdat align 2 {
entry:
  %this.addr = alloca ptr, align 8
  store ptr %this, ptr %this.addr, align 8
  %this1 = load ptr, ptr %this.addr, align 8
  %tokens_ = getelementptr inbounds %"class.net::SourceAddressTokens", ptr %this1, i32 0, i32 5
  ret ptr %tokens_
}

; Function Attrs: mustprogress uwtable
define dso_local noundef i32 @_ZNK3net22QuicCryptoServerConfig27ValidateSourceAddressTokensERKNS_19SourceAddressTokensERKNS_9IPAddressENS_12QuicWallTimeEPNS_23CachedNetworkParametersE(ptr noundef nonnull align 8 dereferenceable(405) %this, ptr noundef nonnull align 8 dereferenceable(56) %source_address_tokens, ptr noundef nonnull align 8 dereferenceable(24) %ip, i64 %now.coerce, ptr noundef %cached_network_params) #0 align 2 {
entry:
  %now = alloca %"class.net::QuicWallTime", align 8
  %this.addr = alloca ptr, align 8
  %source_address_tokens.addr = alloca ptr, align 8
  %ip.addr = alloca ptr, align 8
  %cached_network_params.addr = alloca ptr, align 8
  %reason = alloca i32, align 4
  %__range1 = alloca ptr, align 8
  %__begin1 = alloca %"class.google::protobuf::internal::RepeatedPtrIterator", align 8
  %__end1 = alloca %"class.google::protobuf::internal::RepeatedPtrIterator", align 8
  %token = alloca ptr, align 8
  %agg.tmp = alloca %"class.net::QuicWallTime", align 8
  %coerce.dive = getelementptr inbounds %"class.net::QuicWallTime", ptr %now, i32 0, i32 0
  store i64 %now.coerce, ptr %coerce.dive, align 8
  store ptr %this, ptr %this.addr, align 8
  store ptr %source_address_tokens, ptr %source_address_tokens.addr, align 8
  store ptr %ip, ptr %ip.addr, align 8
  store ptr %cached_network_params, ptr %cached_network_params.addr, align 8
  %this1 = load ptr, ptr %this.addr, align 8
  store i32 17, ptr %reason, align 4
  %0 = load ptr, ptr %source_address_tokens.addr, align 8
  %call = call noundef nonnull align 8 dereferenceable(24) ptr @_ZNK3net19SourceAddressTokens6tokensEv(ptr noundef nonnull align 8 dereferenceable(56) %0)
  store ptr %call, ptr %__range1, align 8
  %1 = load ptr, ptr %__range1, align 8
  %call2 = call ptr @_ZNK6google8protobuf16RepeatedPtrFieldIN3net18SourceAddressTokenEE5beginEv(ptr noundef nonnull align 8 dereferenceable(24) %1)
  %coerce.dive3 = getelementptr inbounds %"class.google::protobuf::internal::RepeatedPtrIterator", ptr %__begin1, i32 0, i32 0
  store ptr %call2, ptr %coerce.dive3, align 8
  %2 = load ptr, ptr %__range1, align 8
  %call4 = call ptr @_ZNK6google8protobuf16RepeatedPtrFieldIN3net18SourceAddressTokenEE3endEv(ptr noundef nonnull align 8 dereferenceable(24) %2)
  %coerce.dive5 = getelementptr inbounds %"class.google::protobuf::internal::RepeatedPtrIterator", ptr %__end1, i32 0, i32 0
  store ptr %call4, ptr %coerce.dive5, align 8
  br label %for.cond

for.cond:                                         ; preds = %for.inc, %entry
  %call6 = call noundef zeroext i1 @_ZNK6google8protobuf8internal19RepeatedPtrIteratorIKN3net18SourceAddressTokenEEneERKS6_(ptr noundef nonnull align 8 dereferenceable(8) %__begin1, ptr noundef nonnull align 8 dereferenceable(8) %__end1)
  br i1 %call6, label %for.body, label %for.end

for.body:                                         ; preds = %for.cond
  %call7 = call noundef nonnull align 8 dereferenceable(56) ptr @_ZNK6google8protobuf8internal19RepeatedPtrIteratorIKN3net18SourceAddressTokenEEdeEv(ptr noundef nonnull align 8 dereferenceable(8) %__begin1)
  store ptr %call7, ptr %token, align 8
  %3 = load ptr, ptr %token, align 8
  %4 = load ptr, ptr %ip.addr, align 8
  call void @llvm.memcpy.p0.p0.i64(ptr align 8 %agg.tmp, ptr align 8 %now, i64 8, i1 false)
  %coerce.dive8 = getelementptr inbounds %"class.net::QuicWallTime", ptr %agg.tmp, i32 0, i32 0
  %5 = load i64, ptr %coerce.dive8, align 8
  %call9 = call noundef i32 @_ZNK3net22QuicCryptoServerConfig32ValidateSingleSourceAddressTokenERKNS_18SourceAddressTokenERKNS_9IPAddressENS_12QuicWallTimeE(ptr noundef nonnull align 8 dereferenceable(405) %this1, ptr noundef nonnull align 8 dereferenceable(56) %3, ptr noundef nonnull align 8 dereferenceable(24) %4, i64 %5)
  store i32 %call9, ptr %reason, align 4
  %6 = load i32, ptr %reason, align 4
  %cmp = icmp eq i32 %6, 0
  br i1 %cmp, label %if.then, label %if.end14

if.then:                                          ; preds = %for.body
  %7 = load ptr, ptr %token, align 8
  %call10 = call noundef zeroext i1 @_ZNK3net18SourceAddressToken29has_cached_network_parametersEv(ptr noundef nonnull align 8 dereferenceable(56) %7)
  br i1 %call10, label %if.then11, label %if.end

if.then11:                                        ; preds = %if.then
  %8 = load ptr, ptr %token, align 8
  %call12 = call noundef nonnull align 8 dereferenceable(72) ptr @_ZNK3net18SourceAddressToken25cached_network_parametersEv(ptr noundef nonnull align 8 dereferenceable(56) %8)
  %9 = load ptr, ptr %cached_network_params.addr, align 8
  %call13 = call noundef nonnull align 8 dereferenceable(72) ptr @_ZN3net23CachedNetworkParametersaSERKS0_(ptr noundef nonnull align 8 dereferenceable(72) %9, ptr noundef nonnull align 8 dereferenceable(72) %call12)
  br label %if.end

if.end:                                           ; preds = %if.then11, %if.then
  br label %for.end

if.end14:                                         ; preds = %for.body
  br label %for.inc

for.inc:                                          ; preds = %if.end14
  %call15 = call noundef nonnull align 8 dereferenceable(8) ptr @_ZN6google8protobuf8internal19RepeatedPtrIteratorIKN3net18SourceAddressTokenEEppEv(ptr noundef nonnull align 8 dereferenceable(8) %__begin1)
  br label %for.cond

for.end:                                          ; preds = %if.end, %for.cond
  %10 = load i32, ptr %reason, align 4
  ret i32 %10
}