; Function Attrs: mustprogress uwtable
define dso_local noundef i32 @_ZNK3net22QuicCryptoServerConfig27ValidateSourceAddressTokensERKNS_19SourceAddressTokensERKNS_9IPAddressENS_12QuicWallTimeEPNS_23CachedNetworkParametersE(ptr nocapture noundef nonnull readonly align 8 dereferenceable(405) %this, ptr nocapture noundef nonnull readonly align 8 dereferenceable(56) %source_address_tokens, ptr noundef nonnull align 8 dereferenceable(24) %ip, i64 %now.coerce, ptr noundef %cached_network_params) local_unnamed_addr #0 align 2 {
entry:
  %rep_.i.i = getelementptr inbounds i8, ptr %source_address_tokens, i64 48
  %0 = load ptr, ptr %rep_.i.i, align 8
  %tobool.not.i.i = icmp eq ptr %0, null
  %elements.i.i = getelementptr inbounds i8, ptr %0, i64 8
  %spec.select.i.i = select i1 %tobool.not.i.i, ptr null, ptr %elements.i.i
  %current_size_.i.i.i = getelementptr inbounds i8, ptr %source_address_tokens, i64 40
  %1 = load i32, ptr %current_size_.i.i.i, align 8
  %idx.ext.i = sext i32 %1 to i64
  %add.ptr.i = getelementptr inbounds ptr, ptr %spec.select.i.i, i64 %idx.ext.i
  %cmp.i.not13 = icmp eq i32 %1, 0
  br i1 %cmp.i.not13, label %for.end, label %for.body

for.cond:                                         ; preds = %for.body
  %incdec.ptr.i = getelementptr inbounds i8, ptr %__begin1.sroa.0.014, i64 8
  %cmp.i.not = icmp eq ptr %incdec.ptr.i, %add.ptr.i
  br i1 %cmp.i.not, label %for.end, label %for.body

for.body:                                         ; preds = %entry, %for.cond
  %__begin1.sroa.0.014 = phi ptr [ %incdec.ptr.i, %for.cond ], [ %spec.select.i.i, %entry ]
  %2 = load ptr, ptr %__begin1.sroa.0.014, align 8
  %call9 = tail call noundef i32 @_ZNK3net22QuicCryptoServerConfig32ValidateSingleSourceAddressTokenERKNS_18SourceAddressTokenERKNS_9IPAddressENS_12QuicWallTimeE(ptr noundef nonnull align 8 dereferenceable(405) %this, ptr noundef nonnull align 8 dereferenceable(56) %2, ptr noundef nonnull align 8 dereferenceable(24) %ip, i64 %now.coerce), !range !32
  %cmp = icmp eq i32 %call9, 0
  br i1 %cmp, label %if.then, label %for.cond

if.then:                                          ; preds = %for.body
  %_has_bits_.i = getelementptr inbounds i8, ptr %2, i64 24
  %3 = load i32, ptr %_has_bits_.i, align 8
  %and.i = and i32 %3, 4
  %cmp.i9.not = icmp eq i32 %and.i, 0
  br i1 %cmp.i9.not, label %for.end, label %if.then11

if.then11:                                        ; preds = %if.then
  %cached_network_parameters_.i = getelementptr inbounds i8, ptr %2, i64 48
  %4 = load ptr, ptr %cached_network_parameters_.i, align 8
  %cmp.not.i = icmp eq ptr %4, null
  br i1 %cmp.not.i, label %cond.false.i, label %_ZNK3net18SourceAddressToken25cached_network_parametersEv.exit

cond.false.i:                                     ; preds = %if.then11
  %5 = load ptr, ptr @_ZN3net18SourceAddressToken17default_instance_E, align 8
  %cached_network_parameters_3.i = getelementptr inbounds i8, ptr %5, i64 48
  %6 = load ptr, ptr %cached_network_parameters_3.i, align 8
  br label %_ZNK3net18SourceAddressToken25cached_network_parametersEv.exit

_ZNK3net18SourceAddressToken25cached_network_parametersEv.exit: ; preds = %if.then11, %cond.false.i
  %cond-lvalue.i = phi ptr [ %6, %cond.false.i ], [ %4, %if.then11 ]
  tail call void @_ZN3net23CachedNetworkParameters8CopyFromERKS0_(ptr noundef nonnull align 8 dereferenceable(72) %cached_network_params, ptr noundef nonnull align 8 dereferenceable(72) %cond-lvalue.i)
  br label %for.end

for.end:                                          ; preds = %for.cond, %entry, %if.then, %_ZNK3net18SourceAddressToken25cached_network_parametersEv.exit
  %reason.1 = phi i32 [ 0, %_ZNK3net18SourceAddressToken25cached_network_parametersEv.exit ], [ 0, %if.then ], [ 17, %entry ], [ %call9, %for.cond ]
  ret i32 %reason.1
}